(lp0
(dp1
Vresults
p2
(lp3
(dp4
Valternatives
p5
(lp6
(dp7
Vtimestamps
p8
(lp9
(lp10
Vthis
p11
aF2.41
aF2.73
aa(lp12
Vis
p13
aF2.73
aF2.82
aasVtranscript
p14
Vthis is 
p15
sasVfinal
p16
I00
sasVresult_index
p17
I0
sa(dp18
Vresults
p19
(lp20
(dp21
Valternatives
p22
(lp23
(dp24
Vtimestamps
p25
(lp26
(lp27
Vthis
p28
aF2.41
aF2.73
aa(lp29
Vis
p30
aF2.73
aF3.25
aasVtranscript
p31
Vthis is 
p32
sasVfinal
p33
I00
sasVresult_index
p34
I0
sa(dp35
Vresults
p36
(lp37
(dp38
Valternatives
p39
(lp40
(dp41
Vtimestamps
p42
(lp43
(lp44
Vthis
p45
aF2.41
aF2.73
aa(lp46
Vis
p47
aF2.73
aF3.28
aa(lp48
Vbeach
p49
aF3.31
aF3.85
aasVtranscript
p50
Vthis is beach 
p51
sasVfinal
p52
I00
sasVresult_index
p53
I0
sa(dp54
Vresults
p55
(lp56
(dp57
Valternatives
p58
(lp59
(dp60
Vtranscript
p61
Vthis is beach 
p62
sVconfidence
p63
F0.78
sVword_confidence
p64
(lp65
(lp66
Vthis
p67
aF1.0
aa(lp68
Vis
p69
aF0.9951644494347486
aa(lp70
Vbeach
p71
aF0.46663170948313826
aasVtimestamps
p72
(lp73
(lp74
Vthis
p75
aF2.41
aF2.73
aa(lp76
Vis
p77
aF2.73
aF3.28
aa(lp78
Vbeach
p79
aF3.31
aF3.91
aasa(dp80
Vtranscript
p81
Vthis is peach 
p82
sa(dp83
Vtranscript
p84
Vthis is speech 
p85
sasVfinal
p86
I01
sasVresult_index
p87
I0
sa.